target datalayout = "e-m:e-p270:32:32-p271:32:32-p272:64:64-i64:64-i128:128-f80:128-n8:16:32:64-S128"
target triple = "x86_64-pc-linux-gnu"

%struct.Splash = type { %struct.ImageFormat, [3 x %struct.DitherSettings], %struct.ImageFormat, [256 x i32], i32, i32, i32, i32, i32, ptr, i32, ptr, %struct.ImageRect, %struct.ImageFormat, ptr, i32, i32, i32, i32, i32, [256 x i32], i32, ptr, i32, ptr, i32, float, [2 x i32], ptr, i64, ptr, ptr, i64, %union.pthread_mutex_t, i64, ptr }
%struct.DitherSettings = type { i32, [512 x i32], [16 x [16 x i32]] }
%struct.ImageRect = type { i32, i32, i32, i32, ptr, ptr, i32, i32, i32 }
%struct.ImageFormat = type { [4 x i32], [4 x i32], i32, i32, i32, ptr, i32, i32, ptr, i32, ptr }
%union.pthread_mutex_t = type { %struct.__pthread_mutex_s }
%struct.__pthread_mutex_s = type { i32, i32, i32, i32, i32, i16, i16, %struct.__pthread_internal_list }
%struct.__pthread_internal_list = type { ptr, ptr }

@SplashGetInstance.splash = internal global %struct.Splash zeroinitializer, align 8
@SplashGetInstance.preInitialized = internal global i32 0, align 4

; Function Attrs: nounwind uwtable
define hidden ptr @SplashGetInstance() #0 {
  %1 = load i32, ptr @SplashGetInstance.preInitialized, align 4
  %2 = icmp ne i32 %1, 0
  br i1 %2, label %4, label %3

3:                                                ; preds = %0
  call void @llvm.memset.p0.i64(ptr align 8 @SplashGetInstance.splash, i8 0, i64 11808, i1 false)
  store i32 -1, ptr getelementptr inbounds (%struct.Splash, ptr @SplashGetInstance.splash, i32 0, i32 16), align 4
  store i32 1, ptr @SplashGetInstance.preInitialized, align 4
  br label %4

4:                                                ; preds = %3, %0
  ret ptr @SplashGetInstance.splash
}

; Function Attrs: nounwind uwtable
define i32 @SplashInit() #0 {
  %1 = alloca ptr, align 8
  %2 = call ptr @SplashGetInstance()
  store ptr %2, ptr %1, align 8
  %3 = load ptr, ptr %1, align 8
  call void @llvm.memset.p0.i64(ptr align 8 %3, i8 0, i64 11808, i1 false)
  %4 = load ptr, ptr %1, align 8
  %5 = getelementptr inbounds %struct.Splash, ptr %4, i32 0, i32 16
  store i32 -1, ptr %5, align 4
  %6 = load ptr, ptr %1, align 8
  %7 = getelementptr inbounds %struct.Splash, ptr %6, i32 0, i32 26
  store float 1.000000e+00, ptr %7, align 4
  %8 = load ptr, ptr %1, align 8
  %9 = getelementptr inbounds %struct.Splash, ptr %8, i32 0, i32 2
  call void @initFormat(ptr noundef %9, i32 noundef 16711680, i32 noundef 65280, i32 noundef 255, i32 noundef -16777216)
  %10 = load ptr, ptr %1, align 8
  %11 = call i32 @SplashInitPlatform(ptr noundef %10)
  ret i32 %11
}