; Function Attrs: nounwind uwtable
define i32 @SplashInit() local_unnamed_addr #2 {
  %.b.i = load i1, ptr @SplashGetInstance.preInitialized, align 4
  br i1 %.b.i, label %SplashGetInstance.exit, label %1

1:                                                ; preds = %0
  store i1 true, ptr @SplashGetInstance.preInitialized, align 4
  br label %SplashGetInstance.exit

SplashGetInstance.exit:                           ; preds = %0, %1
  tail call void @llvm.memset.p0.i64(ptr noundef nonnull align 8 dereferenceable(11808) @SplashGetInstance.splash, i8 0, i64 11808, i1 false)
  store i32 -1, ptr getelementptr inbounds (i8, ptr @SplashGetInstance.splash, i64 10628), align 4
  store float 1.000000e+00, ptr getelementptr inbounds (i8, ptr @SplashGetInstance.splash, i64 11700), align 4
  tail call void @initFormat(ptr noundef nonnull getelementptr inbounds (i8, ptr @SplashGetInstance.splash, i64 9320), i32 noundef 16711680, i32 noundef 65280, i32 noundef 255, i32 noundef -16777216) #20
  %2 = tail call i32 @SplashInitPlatform(ptr noundef nonnull @SplashGetInstance.splash) #20
  ret i32 %2
}